target datalayout = "e-m:e-p270:32:32-p271:32:32-p272:64:64-i64:64-i128:128-f80:128-n8:16:32:64-S128"
target triple = "x86_64-pc-linux-gnu"

%"struct.open_spiel::GameType" = type <{ %"class.std::__cxx11::basic_string", %"class.std::__cxx11::basic_string", i32, i32, i32, i32, i32, i32, i32, i8, i8, i8, i8, %"class.std::map", i8, i8, [6 x i8] }>
%"class.std::__cxx11::basic_string" = type { %"struct.std::__cxx11::basic_string<char>::_Alloc_hider", i64, %union.anon }
%"struct.std::__cxx11::basic_string<char>::_Alloc_hider" = type { ptr }
%union.anon = type { i64, [8 x i8] }
%"class.std::map" = type { %"class.std::_Rb_tree" }
%"class.std::_Rb_tree" = type { %"struct.std::_Rb_tree<std::__cxx11::basic_string<char>, std::pair<const std::__cxx11::basic_string<char>, open_spiel::GameParameter>, std::_Select1st<std::pair<const std::__cxx11::basic_string<char>, open_spiel::GameParameter>>, std::less<std::__cxx11::basic_string<char>>>::_Rb_tree_impl" }
%"struct.std::_Rb_tree<std::__cxx11::basic_string<char>, std::pair<const std::__cxx11::basic_string<char>, open_spiel::GameParameter>, std::_Select1st<std::pair<const std::__cxx11::basic_string<char>, open_spiel::GameParameter>>, std::less<std::__cxx11::basic_string<char>>>::_Rb_tree_impl" = type { [8 x i8], %"struct.std::_Rb_tree_header" }
%"struct.std::_Rb_tree_header" = type { %"struct.std::_Rb_tree_node_base", i64 }
%"struct.std::_Rb_tree_node_base" = type { i32, ptr, ptr, ptr }
%"class.std::_Function_base" = type { %"union.std::_Any_data", ptr }
%"union.std::_Any_data" = type { %"union.std::_Nocopy_types" }
%"union.std::_Nocopy_types" = type { { i64, i64 } }
%"class.std::vector.9" = type { %"struct.std::_Vector_base.10" }
%"struct.std::_Vector_base.10" = type { %"struct.std::_Vector_base<open_spiel::bridge::Contract, std::allocator<open_spiel::bridge::Contract>>::_Vector_impl" }
%"struct.std::_Vector_base<open_spiel::bridge::Contract, std::allocator<open_spiel::bridge::Contract>>::_Vector_impl" = type { %"struct.std::_Vector_base<open_spiel::bridge::Contract, std::allocator<open_spiel::bridge::Contract>>::_Vector_impl_data" }
%"struct.std::_Vector_base<open_spiel::bridge::Contract, std::allocator<open_spiel::bridge::Contract>>::_Vector_impl_data" = type { ptr, ptr, ptr }
%"class.std::vector.14" = type { %"struct.std::_Vector_base.15" }
%"struct.std::_Vector_base.15" = type { %"struct.std::_Vector_base<long, std::allocator<long>>::_Vector_impl" }
%"struct.std::_Vector_base<long, std::allocator<long>>::_Vector_impl" = type { %"struct.std::_Vector_base<long, std::allocator<long>>::_Vector_impl_data" }
%"struct.std::_Vector_base<long, std::allocator<long>>::_Vector_impl_data" = type { ptr, ptr, ptr }
%"class.std::function.19" = type { %"class.std::_Function_base", ptr }
%"class.absl::debian2::string_view" = type { ptr, i64 }
%"class.open_spiel::bridge_uncontested_bidding::UncontestedBiddingGame" = type { %"class.open_spiel::Game", %"class.std::vector.9", %"class.std::vector.14", %"class.std::function.19", i32, i32 }
%"class.open_spiel::Game" = type { ptr, %"class.std::enable_shared_from_this", %"struct.open_spiel::GameType", %"class.std::map", %"class.std::map", %"class.absl::debian2::Mutex" }
%"class.std::enable_shared_from_this" = type { %"class.std::weak_ptr" }
%"class.std::weak_ptr" = type { %"class.std::__weak_ptr" }
%"class.std::__weak_ptr" = type { ptr, %"class.std::__weak_count" }
%"class.std::__weak_count" = type { ptr }
%"class.absl::debian2::Mutex" = type { %"struct.std::atomic" }
%"struct.std::atomic" = type { %"struct.std::__atomic_base" }
%"struct.std::__atomic_base" = type { i64 }
%class.anon = type { i8 }

@.str.12 = private unnamed_addr constant [152 x i8] c"generated/home/dtcxzyw/WorkSpace/Projects/compilers/llvm-opt-benchmark/bench/openspiel/open_spiel/open_spiel/games/bridge/bridge_uncontested_bidding.cc\00", align 1
@.str.13 = private unnamed_addr constant [2 x i8] c":\00", align 1
@.str.41 = private unnamed_addr constant [2 x i8] c")\00", align 1
@.str.48 = private unnamed_addr constant [13 x i8] c" CHECK_TRUE(\00", align 1
@.str.49 = private unnamed_addr constant [40 x i8] c"absl::SimpleAtoi(rng_state, &rng_seed_)\00", align 1

; Function Attrs: mustprogress nounwind uwtable
define linkonce_odr void @_ZZN4absl7debian211string_view19CheckLengthInternalEmENKUlvE_clEv(ptr noundef nonnull align 1 dereferenceable(1) %0) #5 comdat align 2 {
  %2 = alloca ptr, align 8
  store ptr %0, ptr %2, align 8
  br label %3

3:                                                ; preds = %1
  call void @llvm.trap()
  unreachable

4:                                                ; No predecessors!
  ret void
}

; Function Attrs: mustprogress uwtable
define linkonce_odr noundef i64 @_ZN4absl7debian211string_view19CheckLengthInternalEm(i64 noundef %0) #4 comdat align 2 {
  %2 = alloca i64, align 8
  %3 = alloca %class.anon, align 1
  store i64 %0, ptr %2, align 8
  %4 = load i64, ptr %2, align 8
  %5 = icmp ule i64 %4, 9223372036854775807
  br i1 %5, label %6, label %7

6:                                                ; preds = %1
  br label %8

7:                                                ; preds = %1
  call void @_ZZN4absl7debian211string_view19CheckLengthInternalEmENKUlvE_clEv(ptr noundef nonnull align 1 dereferenceable(1) %3)
  br label %8

8:                                                ; preds = %7, %6
  %9 = load i64, ptr %2, align 8
  ret i64 %9
}

; Function Attrs: mustprogress uwtable
define linkonce_odr noundef zeroext i1 @_ZN4absl7debian216numbers_internal16safe_strtoi_baseIiEEbNS0_11string_viewEPT_i(ptr %0, i64 %1, ptr noundef %2, i32 noundef %3) #4 comdat {
  %5 = alloca %"class.absl::debian2::string_view", align 8
  %6 = alloca ptr, align 8
  %7 = alloca i32, align 4
  %8 = alloca i8, align 1
  %9 = alloca i32, align 4
  %10 = alloca %"class.absl::debian2::string_view", align 8
  %11 = getelementptr inbounds nuw { ptr, i64 }, ptr %5, i32 0, i32 0
  store ptr %0, ptr %11, align 8
  %12 = getelementptr inbounds nuw { ptr, i64 }, ptr %5, i32 0, i32 1
  store i64 %1, ptr %12, align 8
  store ptr %2, ptr %6, align 8
  store i32 %3, ptr %7, align 4
  call void @llvm.memcpy.p0.p0.i64(ptr align 8 %10, ptr align 8 %5, i64 16, i1 false)
  %13 = load i32, ptr %7, align 4
  %14 = getelementptr inbounds nuw { ptr, i64 }, ptr %10, i32 0, i32 0
  %15 = load ptr, ptr %14, align 8
  %16 = getelementptr inbounds nuw { ptr, i64 }, ptr %10, i32 0, i32 1
  %17 = load i64, ptr %16, align 8
  %18 = call noundef zeroext i1 @_ZN4absl7debian216numbers_internal17safe_strto32_baseENS0_11string_viewEPii(ptr %15, i64 %17, ptr noundef %9, i32 noundef %13)
  %19 = zext i1 %18 to i8
  store i8 %19, ptr %8, align 1
  %20 = load i32, ptr %9, align 4
  %21 = load ptr, ptr %6, align 8
  store i32 %20, ptr %21, align 4
  %22 = load i8, ptr %8, align 1
  %23 = trunc i8 %22 to i1
  ret i1 %23
}

; Function Attrs: noreturn nounwind uwtable
define linkonce_odr hidden void @__clang_call_terminate(ptr noundef %0) #12 comdat {
  %2 = call ptr @__cxa_begin_catch(ptr %0) #3
  call void @_ZSt9terminatev() #19
  unreachable
}

; Function Attrs: mustprogress uwtable
define linkonce_odr void @_ZN4absl7debian211string_viewC2EPKcm(ptr noundef nonnull align 8 dereferenceable(16) %0, ptr noundef %1, i64 noundef %2) unnamed_addr #4 comdat align 2 {
  %4 = alloca ptr, align 8
  %5 = alloca ptr, align 8
  %6 = alloca i64, align 8
  store ptr %0, ptr %4, align 8
  store ptr %1, ptr %5, align 8
  store i64 %2, ptr %6, align 8
  %7 = load ptr, ptr %4, align 8
  %8 = getelementptr inbounds nuw %"class.absl::debian2::string_view", ptr %7, i32 0, i32 0
  %9 = load ptr, ptr %5, align 8
  store ptr %9, ptr %8, align 8
  %10 = getelementptr inbounds nuw %"class.absl::debian2::string_view", ptr %7, i32 0, i32 1
  %11 = load i64, ptr %6, align 8
  %12 = call noundef i64 @_ZN4absl7debian211string_view19CheckLengthInternalEm(i64 noundef %11)
  store i64 %12, ptr %10, align 8
  ret void
}

; Function Attrs: mustprogress uwtable
define linkonce_odr noundef zeroext i1 @_ZN4absl7debian210SimpleAtoiIiEEbNS0_11string_viewEPT_(ptr %0, i64 %1, ptr noundef %2) #4 comdat {
  %4 = alloca %"class.absl::debian2::string_view", align 8
  %5 = alloca ptr, align 8
  %6 = alloca %"class.absl::debian2::string_view", align 8
  %7 = getelementptr inbounds nuw { ptr, i64 }, ptr %4, i32 0, i32 0
  store ptr %0, ptr %7, align 8
  %8 = getelementptr inbounds nuw { ptr, i64 }, ptr %4, i32 0, i32 1
  store i64 %1, ptr %8, align 8
  store ptr %2, ptr %5, align 8
  call void @llvm.memcpy.p0.p0.i64(ptr align 8 %6, ptr align 8 %4, i64 16, i1 false)
  %9 = load ptr, ptr %5, align 8
  %10 = getelementptr inbounds nuw { ptr, i64 }, ptr %6, i32 0, i32 0
  %11 = load ptr, ptr %10, align 8
  %12 = getelementptr inbounds nuw { ptr, i64 }, ptr %6, i32 0, i32 1
  %13 = load i64, ptr %12, align 8
  %14 = call noundef zeroext i1 @_ZN4absl7debian216numbers_internal16safe_strtoi_baseIiEEbNS0_11string_viewEPT_i(ptr %11, i64 %13, ptr noundef %9, i32 noundef 10)
  ret i1 %14
}

; Function Attrs: mustprogress nounwind uwtable
define linkonce_odr void @_ZN4absl7debian211string_viewC2ISaIcEEERKNSt7__cxx1112basic_stringIcSt11char_traitsIcET_EE(ptr noundef nonnull align 8 dereferenceable(16) %0, ptr noundef nonnull align 8 dereferenceable(32) %1) unnamed_addr #5 comdat align 2 personality ptr @__gxx_personality_v0 {
  %3 = alloca ptr, align 8
  %4 = alloca ptr, align 8
  store ptr %0, ptr %3, align 8
  store ptr %1, ptr %4, align 8
  %5 = load ptr, ptr %3, align 8
  %6 = load ptr, ptr %4, align 8
  %7 = call noundef ptr @_ZNKSt7__cxx1112basic_stringIcSt11char_traitsIcESaIcEE4dataEv(ptr noundef nonnull align 8 dereferenceable(32) %6) #3
  %8 = load ptr, ptr %4, align 8
  %9 = call noundef i64 @_ZNKSt7__cxx1112basic_stringIcSt11char_traitsIcESaIcEE4sizeEv(ptr noundef nonnull align 8 dereferenceable(32) %8) #3
  invoke void @_ZN4absl7debian211string_viewC2EPKcm(ptr noundef nonnull align 8 dereferenceable(16) %5, ptr noundef %7, i64 noundef %9)
          to label %10 unwind label %11

10:                                               ; preds = %2
  ret void

11:                                               ; preds = %2
  %12 = landingpad { ptr, i32 }
          catch ptr null
  %13 = extractvalue { ptr, i32 } %12, 0
  call void @__clang_call_terminate(ptr %13) #19
  unreachable
}

; Function Attrs: mustprogress uwtable
define void @_ZNK10open_spiel26bridge_uncontested_bidding22UncontestedBiddingGame11SetRNGStateERKNSt7__cxx1112basic_stringIcSt11char_traitsIcESaIcEEE(ptr noundef nonnull align 8 dereferenceable(368) %0, ptr noundef nonnull align 8 dereferenceable(32) %1) unnamed_addr #4 align 2 personality ptr @__gxx_personality_v0 {
  %3 = alloca ptr, align 8
  %4 = alloca ptr, align 8
  %5 = alloca %"class.absl::debian2::string_view", align 8
  %6 = alloca %"class.std::__cxx11::basic_string", align 8
  %7 = alloca i32, align 4
  %8 = alloca ptr, align 8
  %9 = alloca i32, align 4
  store ptr %0, ptr %3, align 8
  store ptr %1, ptr %4, align 8
  %10 = load ptr, ptr %3, align 8
  %11 = load ptr, ptr %4, align 8
  %12 = call noundef zeroext i1 @_ZNKSt7__cxx1112basic_stringIcSt11char_traitsIcESaIcEE5emptyEv(ptr noundef nonnull align 8 dereferenceable(32) %11) #3
  br i1 %12, label %13, label %14

13:                                               ; preds = %2
  br label %30

14:                                               ; preds = %2
  br label %15

15:                                               ; preds = %14
  %16 = load ptr, ptr %4, align 8
  call void @_ZN4absl7debian211string_viewC2ISaIcEEERKNSt7__cxx1112basic_stringIcSt11char_traitsIcET_EE(ptr noundef nonnull align 8 dereferenceable(16) %5, ptr noundef nonnull align 8 dereferenceable(32) %16) #3
  %17 = getelementptr inbounds nuw %"class.open_spiel::bridge_uncontested_bidding::UncontestedBiddingGame", ptr %10, i32 0, i32 4
  %18 = getelementptr inbounds nuw { ptr, i64 }, ptr %5, i32 0, i32 0
  %19 = load ptr, ptr %18, align 8
  %20 = getelementptr inbounds nuw { ptr, i64 }, ptr %5, i32 0, i32 1
  %21 = load i64, ptr %20, align 8
  %22 = call noundef zeroext i1 @_ZN4absl7debian210SimpleAtoiIiEEbNS0_11string_viewEPT_(ptr %19, i64 %21, ptr noundef %17)
  %23 = xor i1 %22, true
  br i1 %23, label %24, label %30

24:                                               ; preds = %15
  store i32 457, ptr %7, align 4
  call void @_ZN10open_spiel8internal11SpielStrCatIJRA152_KcRA2_S2_iRA13_S2_RA40_S2_S6_EEENSt7__cxx1112basic_stringIcSt11char_traitsIcESaIcEEEDpOT_(ptr dead_on_unwind writable sret(%"class.std::__cxx11::basic_string") align 8 %6, ptr noundef nonnull align 1 dereferenceable(152) @.str.12, ptr noundef nonnull align 1 dereferenceable(2) @.str.13, ptr noundef nonnull align 4 dereferenceable(4) %7, ptr noundef nonnull align 1 dereferenceable(13) @.str.48, ptr noundef nonnull align 1 dereferenceable(40) @.str.49, ptr noundef nonnull align 1 dereferenceable(2) @.str.41)
  invoke void @_ZN10open_spiel15SpielFatalErrorERKNSt7__cxx1112basic_stringIcSt11char_traitsIcESaIcEEE(ptr noundef nonnull align 8 dereferenceable(32) %6) #16
          to label %25 unwind label %26

25:                                               ; preds = %24
  unreachable

26:                                               ; preds = %24
  %27 = landingpad { ptr, i32 }
          cleanup
  %28 = extractvalue { ptr, i32 } %27, 0
  store ptr %28, ptr %8, align 8
  %29 = extractvalue { ptr, i32 } %27, 1
  store i32 %29, ptr %9, align 4
  call void @_ZNSt7__cxx1112basic_stringIcSt11char_traitsIcESaIcEED1Ev(ptr noundef nonnull align 8 dereferenceable(32) %6) #3
  br label %31

30:                                               ; preds = %15, %13
  ret void

31:                                               ; preds = %26
  %32 = load ptr, ptr %8, align 8
  %33 = load i32, ptr %9, align 4
  %34 = insertvalue { ptr, i32 } poison, ptr %32, 0
  %35 = insertvalue { ptr, i32 } %34, i32 %33, 1
  resume { ptr, i32 } %35
}