; Function Attrs: mustprogress uwtable
define void @_ZNK10open_spiel26bridge_uncontested_bidding22UncontestedBiddingGame11SetRNGStateERKNSt7__cxx1112basic_stringIcSt11char_traitsIcESaIcEEE(ptr noundef nonnull writeonly align 8 captures(none) dereferenceable(368) %0, ptr noundef nonnull align 8 dereferenceable(32) %1) unnamed_addr #3 align 2 personality ptr @__gxx_personality_v0 {
  %3 = alloca i32, align 4
  %4 = alloca %"class.std::__cxx11::basic_string", align 8
  %5 = alloca i32, align 4
  %6 = tail call noundef zeroext i1 @_ZNKSt7__cxx1112basic_stringIcSt11char_traitsIcESaIcEE5emptyEv(ptr noundef nonnull align 8 dereferenceable(32) %1) #26
  br i1 %6, label %19, label %7

7:                                                ; preds = %2
  %8 = tail call noundef ptr @_ZNKSt7__cxx1112basic_stringIcSt11char_traitsIcESaIcEE4dataEv(ptr noundef nonnull align 8 dereferenceable(32) %1) #26
  %9 = tail call noundef i64 @_ZNKSt7__cxx1112basic_stringIcSt11char_traitsIcESaIcEE4sizeEv(ptr noundef nonnull align 8 dereferenceable(32) %1) #26
  %10 = icmp sgt i64 %9, -1
  br i1 %10, label %_ZN4absl7debian211string_viewC2ISaIcEEERKNSt7__cxx1112basic_stringIcSt11char_traitsIcET_EE.exit, label %11

11:                                               ; preds = %7
  tail call void @llvm.trap()
  unreachable

_ZN4absl7debian211string_viewC2ISaIcEEERKNSt7__cxx1112basic_stringIcSt11char_traitsIcET_EE.exit: ; preds = %7
  %12 = getelementptr inbounds nuw i8, ptr %0, i64 360
  call void @llvm.lifetime.start.p0(i64 4, ptr nonnull %3)
  %13 = call noundef zeroext i1 @_ZN4absl7debian216numbers_internal17safe_strto32_baseENS0_11string_viewEPii(ptr %8, i64 %9, ptr noundef nonnull %3, i32 noundef 10)
  %14 = load i32, ptr %3, align 4
  store i32 %14, ptr %12, align 8
  call void @llvm.lifetime.end.p0(i64 4, ptr nonnull %3)
  br i1 %13, label %19, label %15

15:                                               ; preds = %_ZN4absl7debian211string_viewC2ISaIcEEERKNSt7__cxx1112basic_stringIcSt11char_traitsIcET_EE.exit
  store i32 457, ptr %5, align 4
  call void @_ZN10open_spiel8internal11SpielStrCatIJRA152_KcRA2_S2_iRA13_S2_RA40_S2_S6_EEENSt7__cxx1112basic_stringIcSt11char_traitsIcESaIcEEEDpOT_(ptr dead_on_unwind nonnull writable sret(%"class.std::__cxx11::basic_string") align 8 %4, ptr noundef nonnull align 1 dereferenceable(152) @.str.12, ptr noundef nonnull align 1 dereferenceable(2) @.str.13, ptr noundef nonnull align 4 dereferenceable(4) %5, ptr noundef nonnull align 1 dereferenceable(13) @.str.48, ptr noundef nonnull align 1 dereferenceable(40) @.str.49, ptr noundef nonnull align 1 dereferenceable(2) @.str.41)
  invoke void @_ZN10open_spiel15SpielFatalErrorERKNSt7__cxx1112basic_stringIcSt11char_traitsIcESaIcEEE(ptr noundef nonnull align 8 dereferenceable(32) %4) #25
          to label %16 unwind label %17

16:                                               ; preds = %15
  unreachable

17:                                               ; preds = %15
  %18 = landingpad { ptr, i32 }
          cleanup
  call void @_ZNSt7__cxx1112basic_stringIcSt11char_traitsIcESaIcEED1Ev(ptr noundef nonnull align 8 dereferenceable(32) %4) #26
  resume { ptr, i32 } %18

19:                                               ; preds = %2, %_ZN4absl7debian211string_viewC2ISaIcEEERKNSt7__cxx1112basic_stringIcSt11char_traitsIcET_EE.exit
  ret void
}